target datalayout = "e-m:e-p270:32:32-p271:32:32-p272:64:64-i64:64-i128:128-f80:128-n8:16:32:64-S128"
target triple = "x86_64-pc-linux-gnu"

%struct.ossl_cmp_ctx_st = type { ptr, ptr, ptr, i32, ptr, ptr, ptr, ptr, ptr, i32, ptr, ptr, i32, i32, i32, i32, i64, ptr, ptr, i32, i32, ptr, ptr, ptr, ptr, ptr, i32, i32, i32, ptr, ptr, ptr, ptr, ptr, i64, ptr, i32, i32, ptr, ptr, ptr, ptr, ptr, ptr, ptr, ptr, i32, i32, ptr, ptr, i32, ptr, ptr, i32, ptr, ptr, i32, i32, ptr, ptr, i32, i32, ptr, ptr, i32, ptr, i32, ptr, i32, ptr, ptr, ptr, ptr, ptr, ptr }

@.str = private unnamed_addr constant [36 x i8] c"../openssl/crypto/cmp/cmp_protect.c\00", align 1
@__func__.ossl_cmp_set_own_chain = private unnamed_addr constant [23 x i8] c"ossl_cmp_set_own_chain\00", align 1
@.str.2 = private unnamed_addr constant [6 x i8] c"DEBUG\00", align 1
@.str.3 = private unnamed_addr constant [3 x i8] c"%s\00", align 1
@.str.4 = private unnamed_addr constant [46 x i8] c"trying to build chain for own CMP signer cert\00", align 1
@.str.5 = private unnamed_addr constant [47 x i8] c"success building chain for own CMP signer cert\00", align 1
@.str.6 = private unnamed_addr constant [5 x i8] c"WARN\00", align 1
@.str.7 = private unnamed_addr constant [46 x i8] c"could not build chain for own CMP signer cert\00", align 1

; Function Attrs: nounwind uwtable
define void @ossl_cmp_set_own_chain(ptr noundef %0) #0 {
  %2 = alloca ptr, align 8
  store ptr %0, ptr %2, align 8, !tbaa !3
  %3 = load ptr, ptr %2, align 8, !tbaa !3
  %4 = icmp ne ptr %3, null
  %5 = zext i1 %4 to i32
  %6 = icmp ne i32 %5, 0
  %7 = xor i1 %6, true
  %8 = xor i1 %7, true
  %9 = zext i1 %8 to i32
  %10 = sext i32 %9 to i64
  %11 = call i64 @llvm.expect.i64(i64 %10, i64 1)
  %12 = icmp ne i64 %11, 0
  br i1 %12, label %14, label %13

13:                                               ; preds = %1
  br label %49

14:                                               ; preds = %1
  %15 = load ptr, ptr %2, align 8, !tbaa !3
  %16 = getelementptr inbounds nuw %struct.ossl_cmp_ctx_st, ptr %15, i32 0, i32 30
  %17 = load ptr, ptr %16, align 8, !tbaa !59
  %18 = icmp eq ptr %17, null
  br i1 %18, label %19, label %49

19:                                               ; preds = %14
  %20 = load ptr, ptr %2, align 8, !tbaa !3
  %21 = call i32 (i32, ptr, ptr, ptr, i32, ptr, ptr, ...) @ossl_cmp_print_log(i32 noundef 7, ptr noundef %20, ptr noundef @__func__.ossl_cmp_set_own_chain, ptr noundef @.str, i32 noundef 139, ptr noundef @.str.2, ptr noundef @.str.3, ptr noundef @.str.4)
  %22 = load ptr, ptr %2, align 8, !tbaa !3
  %23 = getelementptr inbounds nuw %struct.ossl_cmp_ctx_st, ptr %22, i32 0, i32 29
  %24 = load ptr, ptr %23, align 8, !tbaa !60
  %25 = load ptr, ptr %2, align 8, !tbaa !3
  %26 = getelementptr inbounds nuw %struct.ossl_cmp_ctx_st, ptr %25, i32 0, i32 25
  %27 = load ptr, ptr %26, align 8, !tbaa !61
  %28 = load ptr, ptr %2, align 8, !tbaa !3
  %29 = getelementptr inbounds nuw %struct.ossl_cmp_ctx_st, ptr %28, i32 0, i32 0
  %30 = load ptr, ptr %29, align 8, !tbaa !54
  %31 = load ptr, ptr %2, align 8, !tbaa !3
  %32 = getelementptr inbounds nuw %struct.ossl_cmp_ctx_st, ptr %31, i32 0, i32 1
  %33 = load ptr, ptr %32, align 8, !tbaa !55
  %34 = call ptr @X509_build_chain(ptr noundef %24, ptr noundef %27, ptr noundef null, i32 noundef 0, ptr noundef %30, ptr noundef %33)
  %35 = load ptr, ptr %2, align 8, !tbaa !3
  %36 = getelementptr inbounds nuw %struct.ossl_cmp_ctx_st, ptr %35, i32 0, i32 30
  store ptr %34, ptr %36, align 8, !tbaa !59
  %37 = load ptr, ptr %2, align 8, !tbaa !3
  %38 = getelementptr inbounds nuw %struct.ossl_cmp_ctx_st, ptr %37, i32 0, i32 30
  %39 = load ptr, ptr %38, align 8, !tbaa !59
  %40 = icmp ne ptr %39, null
  br i1 %40, label %41, label %44

41:                                               ; preds = %19
  %42 = load ptr, ptr %2, align 8, !tbaa !3
  %43 = call i32 (i32, ptr, ptr, ptr, i32, ptr, ptr, ...) @ossl_cmp_print_log(i32 noundef 7, ptr noundef %42, ptr noundef @__func__.ossl_cmp_set_own_chain, ptr noundef @.str, i32 noundef 143, ptr noundef @.str.2, ptr noundef @.str.3, ptr noundef @.str.5)
  br label %48

44:                                               ; preds = %19
  %45 = load ptr, ptr %2, align 8, !tbaa !3
  call void @OSSL_CMP_CTX_print_errors(ptr noundef %45)
  %46 = load ptr, ptr %2, align 8, !tbaa !3
  %47 = call i32 (i32, ptr, ptr, ptr, i32, ptr, ptr, ...) @ossl_cmp_print_log(i32 noundef 4, ptr noundef %46, ptr noundef @__func__.ossl_cmp_set_own_chain, ptr noundef @.str, i32 noundef 147, ptr noundef @.str.6, ptr noundef @.str.3, ptr noundef @.str.7)
  br label %48

48:                                               ; preds = %44, %41
  br label %49

49:                                               ; preds = %13, %48, %14
  ret void
}