; Function Attrs: nounwind uwtable
define void @ossl_cmp_set_own_chain(ptr noundef %0) local_unnamed_addr #0 {
  %.not = icmp eq ptr %0, null
  br i1 %.not, label %20, label %2, !prof !52

2:                                                ; preds = %1
  %3 = getelementptr inbounds nuw i8, ptr %0, i64 208
  %4 = load ptr, ptr %3, align 8, !tbaa !53
  %5 = icmp eq ptr %4, null
  br i1 %5, label %6, label %20

6:                                                ; preds = %2
  %7 = tail call i32 (i32, ptr, ptr, ptr, i32, ptr, ptr, ...) @ossl_cmp_print_log(i32 noundef 7, ptr noundef nonnull %0, ptr noundef nonnull @__func__.ossl_cmp_set_own_chain, ptr noundef nonnull @.str, i32 noundef 139, ptr noundef nonnull @.str.2, ptr noundef nonnull @.str.3, ptr noundef nonnull @.str.4) #5
  %8 = getelementptr inbounds nuw i8, ptr %0, i64 200
  %9 = load ptr, ptr %8, align 8, !tbaa !54
  %10 = getelementptr inbounds nuw i8, ptr %0, i64 176
  %11 = load ptr, ptr %10, align 8, !tbaa !55
  %12 = load ptr, ptr %0, align 8, !tbaa !47
  %13 = getelementptr inbounds nuw i8, ptr %0, i64 8
  %14 = load ptr, ptr %13, align 8, !tbaa !48
  %15 = tail call ptr @X509_build_chain(ptr noundef %9, ptr noundef %11, ptr noundef null, i32 noundef 0, ptr noundef %12, ptr noundef %14) #5
  store ptr %15, ptr %3, align 8, !tbaa !53
  %.not12 = icmp eq ptr %15, null
  br i1 %.not12, label %18, label %16

16:                                               ; preds = %6
  %17 = tail call i32 (i32, ptr, ptr, ptr, i32, ptr, ptr, ...) @ossl_cmp_print_log(i32 noundef 7, ptr noundef nonnull %0, ptr noundef nonnull @__func__.ossl_cmp_set_own_chain, ptr noundef nonnull @.str, i32 noundef 143, ptr noundef nonnull @.str.2, ptr noundef nonnull @.str.3, ptr noundef nonnull @.str.5) #5
  br label %20

18:                                               ; preds = %6
  tail call void @OSSL_CMP_CTX_print_errors(ptr noundef nonnull %0) #5
  %19 = tail call i32 (i32, ptr, ptr, ptr, i32, ptr, ptr, ...) @ossl_cmp_print_log(i32 noundef 4, ptr noundef nonnull %0, ptr noundef nonnull @__func__.ossl_cmp_set_own_chain, ptr noundef nonnull @.str, i32 noundef 147, ptr noundef nonnull @.str.6, ptr noundef nonnull @.str.3, ptr noundef nonnull @.str.7) #5
  br label %20

20:                                               ; preds = %16, %18, %1, %2
  ret void
}